; Function Attrs: null_pointer_is_valid sspstrong uwtable
define hidden i32 @dissect_ndr_nt_SID_AND_ATTRIBUTES(ptr noundef %0, i32 noundef %1, ptr noundef %2, ptr noundef %3, ptr noundef %4, ptr noundef %5) #0 {
  %7 = alloca i32, align 4
  %8 = alloca ptr, align 8
  %9 = alloca ptr, align 8
  call void @llvm.lifetime.start.p0(i64 8, ptr nonnull %9) #9
  %10 = load i32, ptr @ett_nt_sid_and_attributes, align 4
  %11 = call ptr @proto_tree_add_subtree(ptr noundef %3, ptr noundef %0, i32 noundef %1, i32 noundef 0, i32 noundef %10, ptr noundef nonnull %9, ptr noundef nonnull @.str.22)
  call void @llvm.lifetime.start.p0(i64 8, ptr nonnull %8) #9
  %12 = load i32, ptr @ett_nt_sid_pointer, align 4
  %13 = call ptr @proto_tree_add_subtree(ptr noundef %11, ptr noundef %0, i32 noundef %1, i32 noundef -1, i32 noundef %12, ptr noundef nonnull %8, ptr noundef nonnull @.str.17)
  %14 = load i32, ptr @hf_nt_domain_sid, align 4
  %15 = call i32 @dissect_ndr_pointer_cb(ptr noundef %0, i32 noundef %1, ptr noundef %2, ptr noundef %13, ptr noundef %4, ptr noundef %5, ptr noundef nonnull @dissect_ndr_nt_SID_hf_through_ptr, i32 noundef 2, ptr noundef nonnull @.str.17, i32 noundef %14, ptr noundef null, ptr noundef null)
  %16 = load ptr, ptr %8, align 8
  %17 = sub i32 %15, %1
  call void @proto_item_set_len(ptr noundef %16, i32 noundef %17)
  call void @llvm.lifetime.end.p0(i64 8, ptr nonnull %8) #9
  call void @llvm.lifetime.start.p0(i64 4, ptr nonnull %7) #9
  %18 = getelementptr inbounds nuw i8, ptr %4, i64 25
  %19 = load i8, ptr %18, align 1, !range !6, !noundef !7
  %20 = trunc nuw i8 %19 to i1
  br i1 %20, label %dissect_ndr_nt_SE_GROUP_ATTRIBUTES.exit, label %21

21:                                               ; preds = %6
  %22 = call i32 @dissect_ndr_uint32(ptr noundef %0, i32 noundef %15, ptr noundef %2, ptr noundef null, ptr noundef %4, ptr noundef %5, i32 noundef -1, ptr noundef nonnull %7)
  %23 = add i32 %22, -4
  %24 = load i32, ptr @hf_nt_se_group_attrs, align 4
  %25 = load i32, ptr @ett_nt_se_group_attrs, align 4
  %26 = load i32, ptr %7, align 4
  %27 = zext i32 %26 to i64
  %28 = call ptr @proto_tree_add_bitmask_value_with_flags(ptr noundef %11, ptr noundef %0, i32 noundef %23, i32 noundef %24, i32 noundef %25, ptr noundef nonnull @dissect_ndr_nt_SE_GROUP_ATTRIBUTES.attr, i64 noundef %27, i32 noundef 1)
  br label %dissect_ndr_nt_SE_GROUP_ATTRIBUTES.exit

dissect_ndr_nt_SE_GROUP_ATTRIBUTES.exit:          ; preds = %6, %21
  %.0.i = phi i32 [ %22, %21 ], [ %15, %6 ]
  call void @llvm.lifetime.end.p0(i64 4, ptr nonnull %7) #9
  call void @llvm.lifetime.end.p0(i64 8, ptr nonnull %9) #9
  ret i32 %.0.i
}